; Function Attrs: nounwind uwtable
define hidden i32 @lsarpc_dissect_struct_lsa_RightAttribute(ptr noundef %0, i32 noundef %1, ptr noundef %2, ptr noundef %3, ptr noundef %4, ptr noundef %5, i32 noundef %6, i32 noundef %7) local_unnamed_addr #0 {
  %9 = getelementptr inbounds nuw i8, ptr %4, i64 72
  %10 = load ptr, ptr %9, align 8
  %11 = getelementptr inbounds nuw i8, ptr %10, i64 96
  %12 = load i32, ptr %11, align 8
  %13 = and i32 %12, 1
  %.not = icmp eq i32 %13, 0
  %14 = getelementptr inbounds nuw i8, ptr %4, i64 28
  %15 = load i32, ptr %14, align 4
  %.not34 = icmp ne i32 %15, 0
  br i1 %.not, label %21, label %16

16:                                               ; preds = %8
  %17 = and i32 %1, 7
  %.not37 = icmp eq i32 %17, 0
  %or.cond = or i1 %.not37, %.not34
  br i1 %or.cond, label %26, label %18

18:                                               ; preds = %16
  %19 = and i32 %1, -8
  %20 = add i32 %19, 8
  br label %26

21:                                               ; preds = %8
  %22 = and i32 %1, 3
  %.not35 = icmp eq i32 %22, 0
  %or.cond42 = or i1 %.not35, %.not34
  br i1 %or.cond42, label %26, label %23

23:                                               ; preds = %21
  %24 = and i32 %1, -4
  %25 = add i32 %24, 4
  br label %26

26:                                               ; preds = %21, %23, %16, %18
  %.0 = phi i32 [ %1, %16 ], [ %20, %18 ], [ %1, %21 ], [ %25, %23 ]
  %.not38 = icmp eq ptr %3, null
  br i1 %.not38, label %31, label %27

27:                                               ; preds = %26
  %28 = tail call ptr @proto_tree_add_item(ptr noundef nonnull %3, i32 noundef %6, ptr noundef %0, i32 noundef %.0, i32 noundef -1, i32 noundef 0) #5
  %29 = load i32, ptr @ett_lsarpc_lsa_RightAttribute, align 4
  %30 = tail call ptr @proto_item_add_subtree(ptr noundef %28, i32 noundef %29) #5
  br label %31

31:                                               ; preds = %27, %26
  %.032 = phi ptr [ %28, %27 ], [ null, %26 ]
  %.031 = phi ptr [ %30, %27 ], [ null, %26 ]
  %32 = load i32, ptr @hf_lsarpc_lsa_RightAttribute_name, align 4
  %33 = tail call i32 @dissect_ndr_embedded_pointer(ptr noundef %0, i32 noundef %.0, ptr noundef %2, ptr noundef %.031, ptr noundef nonnull %4, ptr noundef %5, ptr noundef nonnull @lsarpc_dissect_element_lsa_RightAttribute_name_, i32 noundef 2, ptr noundef nonnull @.str.895, i32 noundef %32) #5
  %34 = sub i32 %33, %.0
  tail call void @proto_item_set_len(ptr noundef %.032, i32 noundef %34) #5
  %35 = load ptr, ptr %9, align 8
  %36 = getelementptr inbounds nuw i8, ptr %35, i64 96
  %37 = load i32, ptr %36, align 8
  %38 = and i32 %37, 1
  %.not39 = icmp eq i32 %38, 0
  br i1 %.not39, label %46, label %39

39:                                               ; preds = %31
  %40 = getelementptr inbounds nuw i8, ptr %4, i64 28
  %41 = load i32, ptr %40, align 4
  %.not40 = icmp ne i32 %41, 0
  %42 = and i32 %33, 7
  %.not41 = icmp eq i32 %42, 0
  %or.cond43 = or i1 %.not41, %.not40
  br i1 %or.cond43, label %46, label %43

43:                                               ; preds = %39
  %44 = and i32 %33, -8
  %45 = add i32 %44, 8
  br label %46

46:                                               ; preds = %43, %39, %31
  %.1 = phi i32 [ %33, %39 ], [ %45, %43 ], [ %33, %31 ]
  ret i32 %.1
}